target datalayout = "e-m:e-p270:32:32-p271:32:32-p272:64:64-i64:64-i128:128-f80:128-n8:16:32:64-S128"
target triple = "x86_64-pc-linux-gnu"

%struct.b2Vec2 = type { float, float }
%struct.b2ShapeId = type { i32, i16, i16 }
%struct.b2RayResult = type { %struct.b2ShapeId, %struct.b2Vec2, %struct.b2Vec2, float, i32, i32, i8 }

; Function Attrs: nounwind uwtable
define internal float @b2RayCastClosestFcn(i64 %0, <2 x float> %1, <2 x float> %2, float noundef %3, ptr noundef %4) #6 {
  %6 = alloca %struct.b2ShapeId, align 4
  %7 = alloca %struct.b2Vec2, align 4
  %8 = alloca %struct.b2Vec2, align 4
  %9 = alloca float, align 4
  %10 = alloca ptr, align 8
  %11 = alloca ptr, align 8
  store i64 %0, ptr %6, align 4
  store <2 x float> %1, ptr %7, align 4
  store <2 x float> %2, ptr %8, align 4
  store float %3, ptr %9, align 4, !tbaa !124
  store ptr %4, ptr %10, align 8, !tbaa !12
  call void @llvm.lifetime.start.p0(i64 8, ptr %11) #10
  %12 = load ptr, ptr %10, align 8, !tbaa !12
  store ptr %12, ptr %11, align 8, !tbaa !554
  %13 = load ptr, ptr %11, align 8, !tbaa !554
  %14 = getelementptr inbounds nuw %struct.b2RayResult, ptr %13, i32 0, i32 0
  call void @llvm.memcpy.p0.p0.i64(ptr align 4 %14, ptr align 4 %6, i64 8, i1 false), !tbaa.struct !299
  %15 = load ptr, ptr %11, align 8, !tbaa !554
  %16 = getelementptr inbounds nuw %struct.b2RayResult, ptr %15, i32 0, i32 1
  call void @llvm.memcpy.p0.p0.i64(ptr align 4 %16, ptr align 4 %7, i64 8, i1 false), !tbaa.struct !162
  %17 = load ptr, ptr %11, align 8, !tbaa !554
  %18 = getelementptr inbounds nuw %struct.b2RayResult, ptr %17, i32 0, i32 2
  call void @llvm.memcpy.p0.p0.i64(ptr align 4 %18, ptr align 4 %8, i64 8, i1 false), !tbaa.struct !162
  %19 = load float, ptr %9, align 4, !tbaa !124
  %20 = load ptr, ptr %11, align 8, !tbaa !554
  %21 = getelementptr inbounds nuw %struct.b2RayResult, ptr %20, i32 0, i32 3
  store float %19, ptr %21, align 4, !tbaa !556
  %22 = load ptr, ptr %11, align 8, !tbaa !554
  %23 = getelementptr inbounds nuw %struct.b2RayResult, ptr %22, i32 0, i32 6
  store i8 1, ptr %23, align 4, !tbaa !557
  %24 = load float, ptr %9, align 4, !tbaa !124
  call void @llvm.lifetime.end.p0(i64 8, ptr %11) #10
  ret float %24
}