; Function Attrs: mustprogress nofree norecurse nosync nounwind willreturn memory(argmem: write) uwtable
define internal noundef float @b2RayCastClosestFcn(i64 %0, <2 x float> %1, <2 x float> %2, float noundef returned %3, ptr noundef writeonly captures(none) initializes((0, 28), (36, 37)) %4) #15 {
  store i64 %0, ptr %4, align 4
  %6 = getelementptr inbounds nuw i8, ptr %4, i64 8
  store <2 x float> %1, ptr %6, align 4
  %7 = getelementptr inbounds nuw i8, ptr %4, i64 16
  store <2 x float> %2, ptr %7, align 4
  %8 = getelementptr inbounds nuw i8, ptr %4, i64 24
  store float %3, ptr %8, align 4, !tbaa !450
  %9 = getelementptr inbounds nuw i8, ptr %4, i64 36
  store i8 1, ptr %9, align 4, !tbaa !451
  ret float %3
}